; Function Attrs: nounwind uwtable
define void @Cba_BlastDivider(ptr noundef %0, ptr noundef readonly captures(none) %1, i32 noundef %2, ptr noundef readonly captures(none) %3, i32 %4, i32 noundef %5, ptr noundef captures(none) initializes((4, 8)) %6) local_unnamed_addr #0 {
  %8 = tail call ptr @Cba_VecCopy(ptr noundef %6, ptr noundef %1, i32 noundef %2)
  %9 = sext i32 %2 to i64
  %10 = shl nsw i64 %9, 2
  %11 = tail call noalias ptr @malloc(i64 noundef %10) #19
  %12 = tail call noalias ptr @malloc(i64 noundef %10) #19
  %13 = icmp sgt i32 %2, 0
  br i1 %13, label %.preheader120.lr.ph, label %._crit_edge139

.preheader120.lr.ph:                              ; preds = %7
  %14 = add nsw i32 %2, -1
  %15 = add nsw i64 %9, -1
  %16 = zext nneg i32 %14 to i64
  %wide.trip.count = zext nneg i32 %2 to i64
  %wide.trip.count150 = zext nneg i32 %2 to i64
  br label %.preheader120

.preheader120:                                    ; preds = %.preheader120.lr.ph, %.loopexit
  %indvars.iv152 = phi i64 [ %15, %.preheader120.lr.ph ], [ %indvars.iv.next153, %.loopexit ]
  %17 = sub nuw nsw i64 %16, %indvars.iv152
  %18 = icmp sgt i64 %indvars.iv152, 0
  br i1 %18, label %.lr.ph, label %.lr.ph129

19:                                               ; preds = %.lr.ph
  %indvars.iv.next = add nsw i64 %indvars.iv, -1
  %20 = icmp sgt i64 %indvars.iv.next, %17
  br i1 %20, label %.lr.ph, label %.lr.ph129, !llvm.loop !35

.lr.ph:                                           ; preds = %.preheader120, %19
  %indvars.iv = phi i64 [ %indvars.iv.next, %19 ], [ %15, %.preheader120 ]
  %.0105122 = phi i32 [ %23, %19 ], [ 0, %.preheader120 ]
  %21 = getelementptr inbounds i32, ptr %3, i64 %indvars.iv
  %22 = load i32, ptr %21, align 4
  %23 = tail call i32 @Gia_ManHashOr(ptr noundef %0, i32 noundef %.0105122, i32 noundef %22) #20
  %24 = icmp eq i32 %23, 1
  br i1 %24, label %.thread, label %19

.thread:                                          ; preds = %.lr.ph
  %25 = getelementptr inbounds nuw i32, ptr %11, i64 %indvars.iv152
  store i32 0, ptr %25, align 4
  br label %.loopexit

.lr.ph129:                                        ; preds = %19, %.preheader120
  %.promoted.ph = phi i32 [ 0, %.preheader120 ], [ %23, %19 ]
  %26 = getelementptr inbounds nuw i32, ptr %11, i64 %indvars.iv152
  br label %27

27:                                               ; preds = %.lr.ph129, %33
  %indvars.iv141 = phi i64 [ %15, %.lr.ph129 ], [ %indvars.iv.next142, %33 ]
  %28 = phi i32 [ %.promoted.ph, %.lr.ph129 ], [ %39, %33 ]
  %.2127 = phi i32 [ %.promoted.ph, %.lr.ph129 ], [ %42, %33 ]
  %.not117 = icmp slt i64 %indvars.iv141, %indvars.iv152
  br i1 %.not117, label %33, label %29

29:                                               ; preds = %27
  %30 = sub nsw i64 %indvars.iv141, %indvars.iv152
  %31 = getelementptr inbounds i32, ptr %3, i64 %30
  %32 = load i32, ptr %31, align 4
  br label %33

33:                                               ; preds = %27, %29
  %34 = phi i32 [ %32, %29 ], [ 0, %27 ]
  %35 = getelementptr inbounds nuw i32, ptr %8, i64 %indvars.iv141
  %36 = load i32, ptr %35, align 4
  %37 = xor i32 %36, 1
  %38 = tail call i32 @Gia_ManHashAnd(ptr noundef %0, i32 noundef %34, i32 noundef %37) #20
  %39 = tail call i32 @Gia_ManHashMux(ptr noundef %0, i32 noundef %.2127, i32 noundef %28, i32 noundef %38) #20
  %40 = load i32, ptr %35, align 4
  %41 = tail call i32 @Gia_ManHashXor(ptr noundef %0, i32 noundef %34, i32 noundef %40) #20
  %42 = tail call i32 @Gia_ManHashOr(ptr noundef %0, i32 noundef %.2127, i32 noundef %41) #20
  %indvars.iv.next142 = add nsw i64 %indvars.iv141, -1
  %43 = icmp slt i64 %indvars.iv141, 1
  %44 = icmp eq i32 %42, 1
  %or.cond = select i1 %43, i1 true, i1 %44
  br i1 %or.cond, label %45, label %27, !llvm.loop !36

45:                                               ; preds = %33
  %46 = xor i32 %39, 1
  store i32 %46, ptr %26, align 4
  %47 = icmp eq i32 %39, 1
  br i1 %47, label %.loopexit, label %.lr.ph133

.lr.ph133:                                        ; preds = %45, %56
  %indvars.iv144 = phi i64 [ %indvars.iv.next145, %56 ], [ 0, %45 ]
  %.0132 = phi i32 [ %61, %56 ], [ 0, %45 ]
  %48 = getelementptr inbounds nuw i32, ptr %8, i64 %indvars.iv144
  %49 = load i32, ptr %48, align 4
  %50 = xor i32 %49, 1
  %51 = tail call i32 @Gia_ManHashMux(ptr noundef %0, i32 noundef %.0132, i32 noundef %50, i32 noundef %49) #20
  %.not118 = icmp slt i64 %indvars.iv144, %indvars.iv152
  br i1 %.not118, label %56, label %52

52:                                               ; preds = %.lr.ph133
  %53 = sub nsw i64 %indvars.iv144, %indvars.iv152
  %54 = getelementptr inbounds i32, ptr %3, i64 %53
  %55 = load i32, ptr %54, align 4
  br label %56

56:                                               ; preds = %.lr.ph133, %52
  %57 = phi i32 [ %55, %52 ], [ 0, %.lr.ph133 ]
  %58 = load i32, ptr %48, align 4
  %59 = tail call i32 @Gia_ManHashAnd(ptr noundef %0, i32 noundef %.0132, i32 noundef %57) #20
  %60 = tail call i32 @Gia_ManHashOr(ptr noundef %0, i32 noundef %.0132, i32 noundef %57) #20
  %61 = tail call i32 @Gia_ManHashMux(ptr noundef %0, i32 noundef %58, i32 noundef %59, i32 noundef %60) #20
  %62 = tail call i32 @Gia_ManHashXor(ptr noundef %0, i32 noundef %51, i32 noundef %57) #20
  %63 = getelementptr inbounds nuw i32, ptr %12, i64 %indvars.iv144
  store i32 %62, ptr %63, align 4
  %indvars.iv.next145 = add nuw nsw i64 %indvars.iv144, 1
  %exitcond.not = icmp eq i64 %indvars.iv.next145, %wide.trip.count
  br i1 %exitcond.not, label %._crit_edge134, label %.lr.ph133, !llvm.loop !37

._crit_edge134:                                   ; preds = %56
  %64 = icmp eq i32 %39, 0
  br i1 %64, label %65, label %.lr.ph136

65:                                               ; preds = %._crit_edge134
  %66 = tail call ptr @Cba_VecCopy(ptr noundef %6, ptr noundef nonnull %12, i32 noundef %2)
  br label %.loopexit

.lr.ph136:                                        ; preds = %._crit_edge134, %.lr.ph136
  %indvars.iv147 = phi i64 [ %indvars.iv.next148, %.lr.ph136 ], [ 0, %._crit_edge134 ]
  %67 = getelementptr inbounds nuw i32, ptr %12, i64 %indvars.iv147
  %68 = load i32, ptr %67, align 4
  %69 = getelementptr inbounds nuw i32, ptr %8, i64 %indvars.iv147
  %70 = load i32, ptr %69, align 4
  %71 = tail call i32 @Gia_ManHashMux(ptr noundef %0, i32 noundef %46, i32 noundef %68, i32 noundef %70) #20
  store i32 %71, ptr %69, align 4
  %indvars.iv.next148 = add nuw nsw i64 %indvars.iv147, 1
  %exitcond151.not = icmp eq i64 %indvars.iv.next148, %wide.trip.count150
  br i1 %exitcond151.not, label %.loopexit, label %.lr.ph136, !llvm.loop !38

.loopexit:                                        ; preds = %.lr.ph136, %.thread, %65, %45
  %indvars.iv.next153 = add nsw i64 %indvars.iv152, -1
  br i1 %18, label %.preheader120, label %._crit_edge139, !llvm.loop !39

._crit_edge139:                                   ; preds = %.loopexit, %7
  %.not = icmp eq ptr %12, null
  br i1 %.not, label %73, label %72

72:                                               ; preds = %._crit_edge139
  tail call void @free(ptr noundef nonnull %12) #20
  br label %73

73:                                               ; preds = %._crit_edge139, %72
  %.not115 = icmp eq i32 %5, 0
  br i1 %.not115, label %76, label %74

74:                                               ; preds = %73
  %75 = tail call ptr @Cba_VecCopy(ptr noundef %6, ptr noundef %11, i32 noundef %2)
  br label %76

76:                                               ; preds = %74, %73
  %.not116 = icmp eq ptr %11, null
  br i1 %.not116, label %78, label %77

77:                                               ; preds = %76
  tail call void @free(ptr noundef nonnull %11) #20
  br label %78

78:                                               ; preds = %76, %77
  ret void
}